; Function Attrs: nounwind sspstrong uwtable
define internal i64 @wmap_inspect(i64 noundef %0) #0 {
  %2 = alloca %struct.wmap_foreach_data, align 8
  %3 = icmp eq i64 %0, 0
  %4 = and i64 %0, 7
  %5 = icmp ne i64 %4, 0
  %6 = or i1 %3, %5
  br i1 %6, label %10, label %7

7:                                                ; preds = %1
  %8 = inttoptr i64 %0 to ptr
  %9 = getelementptr inbounds nuw i8, ptr %8, i64 8
  br label %rb_class_of.exit

10:                                               ; preds = %1
  switch i64 %0, label %13 [
    i64 0, label %rb_class_of.exit
    i64 4, label %11
    i64 20, label %12
  ]

11:                                               ; preds = %10
  br label %rb_class_of.exit

12:                                               ; preds = %10
  br label %rb_class_of.exit

13:                                               ; preds = %10
  %14 = and i64 %0, 1
  %.not.i = icmp eq i64 %14, 0
  br i1 %.not.i, label %15, label %rb_class_of.exit

15:                                               ; preds = %13
  %16 = and i64 %0, 254
  %17 = icmp eq i64 %16, 12
  %spec.select.i = select i1 %17, ptr @rb_cSymbol, ptr @rb_cFloat
  br label %rb_class_of.exit

rb_class_of.exit:                                 ; preds = %7, %10, %11, %12, %13, %15
  %.0.in.i = phi ptr [ @rb_cNilClass, %11 ], [ @rb_cTrueClass, %12 ], [ %9, %7 ], [ @rb_cFalseClass, %10 ], [ @rb_cInteger, %13 ], [ %spec.select.i, %15 ]
  %.0.i = load i64, ptr %.0.in.i, align 8, !tbaa !7
  %18 = tail call i64 @rb_class_name(i64 noundef %.0.i) #10
  %19 = tail call ptr @rb_check_typeddata(i64 noundef %0, ptr noundef nonnull @weakmap_type) #10
  %20 = inttoptr i64 %0 to ptr
  %21 = tail call i64 (ptr, ...) @rb_sprintf(ptr noundef nonnull @.str.22, i64 noundef %18, ptr noundef %20) #10
  %.val = load ptr, ptr %19, align 8, !tbaa !17
  call void @llvm.lifetime.start.p0(i64 24, ptr nonnull %2) #10
  store ptr @wmap_inspect_i, ptr %2, align 8, !tbaa !20
  %22 = getelementptr inbounds nuw i8, ptr %2, i64 8
  store i64 %21, ptr %22, align 8, !tbaa !23
  %23 = getelementptr inbounds nuw i8, ptr %2, i64 16
  store ptr null, ptr %23, align 8, !tbaa !24
  %24 = ptrtoint ptr %2 to i64
  %25 = call i32 @rb_st_foreach(ptr noundef %.val, ptr noundef nonnull @wmap_foreach_i, i64 noundef %24) #10
  %26 = load ptr, ptr %23, align 8, !tbaa !24
  call void @ruby_xfree(ptr noundef %26) #10
  call void @llvm.lifetime.end.p0(i64 24, ptr nonnull %2) #10
  %27 = inttoptr i64 %21 to ptr
  %28 = load i64, ptr %27, align 8, !tbaa !25, !noalias !26
  %29 = and i64 %28, 8192
  %.not.i.i = icmp eq i64 %29, 0
  %30 = getelementptr inbounds nuw i8, ptr %27, i64 24
  br i1 %.not.i.i, label %RSTRING_PTR.exit, label %31

31:                                               ; preds = %rb_class_of.exit
  %.sroa.2.0.copyload.i = load ptr, ptr %30, align 8
  br label %RSTRING_PTR.exit

RSTRING_PTR.exit:                                 ; preds = %rb_class_of.exit, %31
  %.sroa.2.0.i = phi ptr [ %.sroa.2.0.copyload.i, %31 ], [ %30, %rb_class_of.exit ]
  store i8 35, ptr %.sroa.2.0.i, align 1, !tbaa !29
  %32 = call i64 @rb_str_cat(i64 noundef %21, ptr noundef nonnull @.str.23, i64 noundef 1) #10
  ret i64 %21
}